target datalayout = "e-m:e-p270:32:32-p271:32:32-p272:64:64-i64:64-i128:128-f80:128-n8:16:32:64-S128"
target triple = "x86_64-pc-linux-gnu"

%class.Type = type <{ ptr, ptr, i32, [4 x i8] }>
%class.Type.base = type <{ ptr, ptr, i32 }>
%class.TypePtr = type <{ %class.Type.base, [4 x i8], ptr, i32, i32, i32, [4 x i8] }>

@_ZN7TypePtr8NULL_PTRE = hidden global ptr null, align 8

; Function Attrs: mustprogress nounwind uwtable
define linkonce_odr hidden noundef ptr @_ZNK4Type4dualEv(ptr noundef nonnull align 8 dereferenceable(20) %0) #1 comdat align 2 {
  %2 = alloca ptr, align 8
  store ptr %0, ptr %2, align 8
  %3 = load ptr, ptr %2, align 8
  %4 = getelementptr inbounds %class.Type, ptr %3, i32 0, i32 1
  %5 = load ptr, ptr %4, align 8
  ret ptr %5
}

; Function Attrs: mustprogress nounwind uwtable
define linkonce_odr hidden void @_ZNK4Type24assert_type_verify_emptyEv(ptr noundef nonnull align 8 dereferenceable(20) %0) #1 comdat align 2 {
  %2 = alloca ptr, align 8
  store ptr %0, ptr %2, align 8
  ret void
}

; Function Attrs: mustprogress nounwind uwtable
define linkonce_odr hidden noundef ptr @_ZNK4Type11join_helperEPKS_b(ptr noundef nonnull align 8 dereferenceable(20) %0, ptr noundef %1, i1 noundef zeroext %2) #1 comdat align 2 {
  %4 = alloca ptr, align 8
  %5 = alloca ptr, align 8
  %6 = alloca i8, align 1
  store ptr %0, ptr %4, align 8
  store ptr %1, ptr %5, align 8
  %7 = zext i1 %2 to i8
  store i8 %7, ptr %6, align 1
  %8 = load ptr, ptr %4, align 8
  call void @_ZNK4Type24assert_type_verify_emptyEv(ptr noundef nonnull align 8 dereferenceable(20) %8)
  %9 = call noundef ptr @_ZNK4Type4dualEv(ptr noundef nonnull align 8 dereferenceable(20) %8)
  %10 = load ptr, ptr %5, align 8
  %11 = call noundef ptr @_ZNK4Type4dualEv(ptr noundef nonnull align 8 dereferenceable(20) %10)
  %12 = load i8, ptr %6, align 1
  %13 = trunc i8 %12 to i1
  %14 = call noundef ptr @_ZNK4Type11meet_helperEPKS_b(ptr noundef nonnull align 8 dereferenceable(20) %9, ptr noundef %11, i1 noundef zeroext %13)
  %15 = call noundef ptr @_ZNK4Type4dualEv(ptr noundef nonnull align 8 dereferenceable(20) %14)
  ret ptr %15
}

; Function Attrs: mustprogress nounwind uwtable
define linkonce_odr hidden noundef ptr @_ZNK4Type6is_ptrEv(ptr noundef nonnull align 8 dereferenceable(20) %0) #1 comdat align 2 {
  %2 = alloca ptr, align 8
  store ptr %0, ptr %2, align 8
  %3 = load ptr, ptr %2, align 8
  ret ptr %3
}

; Function Attrs: mustprogress nounwind uwtable
define linkonce_odr hidden noundef ptr @_ZNK4Type4joinEPKS_(ptr noundef nonnull align 8 dereferenceable(20) %0, ptr noundef %1) #1 comdat align 2 {
  %3 = alloca ptr, align 8
  %4 = alloca ptr, align 8
  store ptr %0, ptr %3, align 8
  store ptr %1, ptr %4, align 8
  %5 = load ptr, ptr %3, align 8
  %6 = load ptr, ptr %4, align 8
  %7 = call noundef ptr @_ZNK4Type11join_helperEPKS_b(ptr noundef nonnull align 8 dereferenceable(20) %5, ptr noundef %6, i1 noundef zeroext false)
  ret ptr %7
}

; Function Attrs: mustprogress nounwind uwtable
define hidden noundef zeroext i1 @_ZNK7TypePtr23speculative_always_nullEv(ptr noundef nonnull align 8 dereferenceable(44) %0) unnamed_addr #1 align 2 {
  %2 = alloca i1, align 1
  %3 = alloca ptr, align 8
  %4 = alloca ptr, align 8
  store ptr %0, ptr %3, align 8
  %5 = load ptr, ptr %3, align 8
  %6 = getelementptr inbounds %class.TypePtr, ptr %5, i32 0, i32 2
  %7 = load ptr, ptr %6, align 8
  %8 = icmp ne ptr %7, null
  br i1 %8, label %9, label %17

9:                                                ; preds = %1
  %10 = getelementptr inbounds %class.TypePtr, ptr %5, i32 0, i32 2
  %11 = load ptr, ptr %10, align 8
  %12 = call noundef ptr @_ZNK4Type4joinEPKS_(ptr noundef nonnull align 8 dereferenceable(20) %11, ptr noundef %5)
  %13 = call noundef ptr @_ZNK4Type6is_ptrEv(ptr noundef nonnull align 8 dereferenceable(20) %12)
  store ptr %13, ptr %4, align 8
  %14 = load ptr, ptr %4, align 8
  %15 = load ptr, ptr @_ZN7TypePtr8NULL_PTRE, align 8
  %16 = icmp eq ptr %14, %15
  store i1 %16, ptr %2, align 1
  br label %18

17:                                               ; preds = %1
  store i1 false, ptr %2, align 1
  br label %18

18:                                               ; preds = %17, %9
  %19 = load i1, ptr %2, align 1
  ret i1 %19
}