; Function Attrs: mustprogress nounwind uwtable
define hidden noundef zeroext i1 @_ZNK7TypePtr23speculative_always_nullEv(ptr nocapture noundef nonnull readonly align 8 dereferenceable(44) %0) unnamed_addr #0 align 2 {
  %2 = getelementptr inbounds i8, ptr %0, i64 24
  %3 = load ptr, ptr %2, align 8
  %.not = icmp eq ptr %3, null
  br i1 %.not, label %14, label %4

4:                                                ; preds = %1
  %5 = getelementptr inbounds i8, ptr %3, i64 8
  %6 = load ptr, ptr %5, align 8
  %7 = getelementptr inbounds i8, ptr %0, i64 8
  %8 = load ptr, ptr %7, align 8
  %9 = tail call noundef ptr @_ZNK4Type11meet_helperEPKS_b(ptr noundef nonnull align 8 dereferenceable(20) %6, ptr noundef %8, i1 noundef zeroext false)
  %10 = getelementptr inbounds i8, ptr %9, i64 8
  %11 = load ptr, ptr %10, align 8
  %12 = load ptr, ptr @_ZN7TypePtr8NULL_PTRE, align 8
  %13 = icmp eq ptr %11, %12
  br label %14

14:                                               ; preds = %1, %4
  %.0 = phi i1 [ %13, %4 ], [ false, %1 ]
  ret i1 %.0
}